target datalayout = "e-m:e-p270:32:32-p271:32:32-p272:64:64-i64:64-i128:128-f80:128-n8:16:32:64-S128"
target triple = "x86_64-pc-linux-gnu"

%struct.jv_parser = type { ptr, i32, i32, i32, i32, i32, i32, ptr, i32, i32, %struct.jv, i32, %struct.jv, %struct.jv, ptr, i32, i32, i32, i32, %struct.dtoa_context, i32, i8 }
%struct.jv = type { i8, i8, i16, i32, %union.anon }
%union.anon = type { ptr }
%struct.dtoa_context = type { [8 x ptr], ptr }

; Function Attrs: nounwind uwtable
define internal void @parser_reset(ptr noundef %0) #0 {
  %2 = alloca ptr, align 8
  %3 = alloca %struct.jv, align 8
  %4 = alloca %struct.jv, align 8
  %5 = alloca %struct.jv, align 8
  %6 = alloca i32, align 4
  store ptr %0, ptr %2, align 8, !tbaa !8
  %7 = load ptr, ptr %2, align 8, !tbaa !8
  %8 = getelementptr inbounds nuw %struct.jv_parser, ptr %7, i32 0, i32 6
  %9 = load i32, ptr %8, align 4, !tbaa !11
  %10 = and i32 %9, 2
  %11 = icmp ne i32 %10, 0
  br i1 %11, label %12, label %28

12:                                               ; preds = %1
  %13 = load ptr, ptr %2, align 8, !tbaa !8
  %14 = getelementptr inbounds nuw %struct.jv_parser, ptr %13, i32 0, i32 10
  %15 = getelementptr inbounds nuw { i64, ptr }, ptr %14, i32 0, i32 0
  %16 = load i64, ptr %15, align 8
  %17 = getelementptr inbounds nuw { i64, ptr }, ptr %14, i32 0, i32 1
  %18 = load ptr, ptr %17, align 8
  call void @jv_free(i64 %16, ptr %18)
  %19 = load ptr, ptr %2, align 8, !tbaa !8
  %20 = getelementptr inbounds nuw %struct.jv_parser, ptr %19, i32 0, i32 10
  call void @llvm.lifetime.start.p0(i64 16, ptr %3) #6
  %21 = call { i64, ptr } @jv_array()
  %22 = getelementptr inbounds nuw { i64, ptr }, ptr %3, i32 0, i32 0
  %23 = extractvalue { i64, ptr } %21, 0
  store i64 %23, ptr %22, align 8
  %24 = getelementptr inbounds nuw { i64, ptr }, ptr %3, i32 0, i32 1
  %25 = extractvalue { i64, ptr } %21, 1
  store ptr %25, ptr %24, align 8
  call void @llvm.memcpy.p0.p0.i64(ptr align 8 %20, ptr align 8 %3, i64 16, i1 false), !tbaa.struct !18
  call void @llvm.lifetime.end.p0(i64 16, ptr %3) #6
  %26 = load ptr, ptr %2, align 8, !tbaa !8
  %27 = getelementptr inbounds nuw %struct.jv_parser, ptr %26, i32 0, i32 9
  store i32 0, ptr %27, align 4, !tbaa !23
  br label %28

28:                                               ; preds = %12, %1
  %29 = load ptr, ptr %2, align 8, !tbaa !8
  %30 = getelementptr inbounds nuw %struct.jv_parser, ptr %29, i32 0, i32 11
  store i32 0, ptr %30, align 8, !tbaa !24
  %31 = load ptr, ptr %2, align 8, !tbaa !8
  %32 = getelementptr inbounds nuw %struct.jv_parser, ptr %31, i32 0, i32 12
  %33 = getelementptr inbounds nuw { i64, ptr }, ptr %32, i32 0, i32 0
  %34 = load i64, ptr %33, align 8
  %35 = getelementptr inbounds nuw { i64, ptr }, ptr %32, i32 0, i32 1
  %36 = load ptr, ptr %35, align 8
  call void @jv_free(i64 %34, ptr %36)
  %37 = load ptr, ptr %2, align 8, !tbaa !8
  %38 = getelementptr inbounds nuw %struct.jv_parser, ptr %37, i32 0, i32 12
  call void @llvm.lifetime.start.p0(i64 16, ptr %4) #6
  %39 = call { i64, ptr } @jv_invalid()
  %40 = getelementptr inbounds nuw { i64, ptr }, ptr %4, i32 0, i32 0
  %41 = extractvalue { i64, ptr } %39, 0
  store i64 %41, ptr %40, align 8
  %42 = getelementptr inbounds nuw { i64, ptr }, ptr %4, i32 0, i32 1
  %43 = extractvalue { i64, ptr } %39, 1
  store ptr %43, ptr %42, align 8
  call void @llvm.memcpy.p0.p0.i64(ptr align 8 %38, ptr align 8 %4, i64 16, i1 false), !tbaa.struct !18
  call void @llvm.lifetime.end.p0(i64 16, ptr %4) #6
  %44 = load ptr, ptr %2, align 8, !tbaa !8
  %45 = getelementptr inbounds nuw %struct.jv_parser, ptr %44, i32 0, i32 13
  %46 = getelementptr inbounds nuw { i64, ptr }, ptr %45, i32 0, i32 0
  %47 = load i64, ptr %46, align 8
  %48 = getelementptr inbounds nuw { i64, ptr }, ptr %45, i32 0, i32 1
  %49 = load ptr, ptr %48, align 8
  call void @jv_free(i64 %47, ptr %49)
  %50 = load ptr, ptr %2, align 8, !tbaa !8
  %51 = getelementptr inbounds nuw %struct.jv_parser, ptr %50, i32 0, i32 13
  call void @llvm.lifetime.start.p0(i64 16, ptr %5) #6
  %52 = call { i64, ptr } @jv_invalid()
  %53 = getelementptr inbounds nuw { i64, ptr }, ptr %5, i32 0, i32 0
  %54 = extractvalue { i64, ptr } %52, 0
  store i64 %54, ptr %53, align 8
  %55 = getelementptr inbounds nuw { i64, ptr }, ptr %5, i32 0, i32 1
  %56 = extractvalue { i64, ptr } %52, 1
  store ptr %56, ptr %55, align 8
  call void @llvm.memcpy.p0.p0.i64(ptr align 8 %51, ptr align 8 %5, i64 16, i1 false), !tbaa.struct !18
  call void @llvm.lifetime.end.p0(i64 16, ptr %5) #6
  call void @llvm.lifetime.start.p0(i64 4, ptr %6) #6
  store i32 0, ptr %6, align 4, !tbaa !4
  br label %57

57:                                               ; preds = %75, %28
  %58 = load i32, ptr %6, align 4, !tbaa !4
  %59 = load ptr, ptr %2, align 8, !tbaa !8
  %60 = getelementptr inbounds nuw %struct.jv_parser, ptr %59, i32 0, i32 8
  %61 = load i32, ptr %60, align 8, !tbaa !22
  %62 = icmp slt i32 %58, %61
  br i1 %62, label %64, label %63

63:                                               ; preds = %57
  call void @llvm.lifetime.end.p0(i64 4, ptr %6) #6
  br label %78

64:                                               ; preds = %57
  %65 = load ptr, ptr %2, align 8, !tbaa !8
  %66 = getelementptr inbounds nuw %struct.jv_parser, ptr %65, i32 0, i32 7
  %67 = load ptr, ptr %66, align 8, !tbaa !21
  %68 = load i32, ptr %6, align 4, !tbaa !4
  %69 = sext i32 %68 to i64
  %70 = getelementptr inbounds %struct.jv, ptr %67, i64 %69
  %71 = getelementptr inbounds nuw { i64, ptr }, ptr %70, i32 0, i32 0
  %72 = load i64, ptr %71, align 8
  %73 = getelementptr inbounds nuw { i64, ptr }, ptr %70, i32 0, i32 1
  %74 = load ptr, ptr %73, align 8
  call void @jv_free(i64 %72, ptr %74)
  br label %75

75:                                               ; preds = %64
  %76 = load i32, ptr %6, align 4, !tbaa !4
  %77 = add nsw i32 %76, 1
  store i32 %77, ptr %6, align 4, !tbaa !4
  br label %57, !llvm.loop !41

78:                                               ; preds = %63
  %79 = load ptr, ptr %2, align 8, !tbaa !8
  %80 = getelementptr inbounds nuw %struct.jv_parser, ptr %79, i32 0, i32 8
  store i32 0, ptr %80, align 8, !tbaa !22
  %81 = load ptr, ptr %2, align 8, !tbaa !8
  %82 = getelementptr inbounds nuw %struct.jv_parser, ptr %81, i32 0, i32 15
  store i32 0, ptr %82, align 8, !tbaa !26
  %83 = load ptr, ptr %2, align 8, !tbaa !8
  %84 = getelementptr inbounds nuw %struct.jv_parser, ptr %83, i32 0, i32 20
  store i32 0, ptr %84, align 8, !tbaa !28
  ret void
}