; Function Attrs: nounwind uwtable
define internal fastcc void @parser_reset(ptr noundef captures(none) initializes((64, 68)) %0) unnamed_addr #0 {
  %2 = getelementptr inbounds nuw i8, ptr %0, i64 28
  %3 = load i32, ptr %2, align 4, !tbaa !4
  %4 = and i32 %3, 2
  %.not = icmp eq i32 %4, 0
  br i1 %.not, label %14, label %5

5:                                                ; preds = %1
  %6 = getelementptr inbounds nuw i8, ptr %0, i64 48
  %7 = load i64, ptr %6, align 8
  %8 = getelementptr inbounds nuw i8, ptr %0, i64 56
  %9 = load ptr, ptr %8, align 8
  tail call void @jv_free(i64 %7, ptr %9) #9
  %10 = tail call { i64, ptr } @jv_array() #9
  %11 = extractvalue { i64, ptr } %10, 0
  %12 = extractvalue { i64, ptr } %10, 1
  store i64 %11, ptr %6, align 8
  store ptr %12, ptr %8, align 8, !tbaa !15
  %13 = getelementptr inbounds nuw i8, ptr %0, i64 44
  store i32 0, ptr %13, align 4, !tbaa !31
  br label %14

14:                                               ; preds = %5, %1
  %15 = getelementptr inbounds nuw i8, ptr %0, i64 64
  store i32 0, ptr %15, align 8, !tbaa !16
  %16 = getelementptr inbounds nuw i8, ptr %0, i64 72
  %17 = load i64, ptr %16, align 8
  %18 = getelementptr inbounds nuw i8, ptr %0, i64 80
  %19 = load ptr, ptr %18, align 8
  tail call void @jv_free(i64 %17, ptr %19) #9
  %20 = tail call { i64, ptr } @jv_invalid() #9
  %21 = extractvalue { i64, ptr } %20, 0
  %22 = extractvalue { i64, ptr } %20, 1
  store i64 %21, ptr %16, align 8
  store ptr %22, ptr %18, align 8, !tbaa !15
  %23 = getelementptr inbounds nuw i8, ptr %0, i64 88
  %24 = load i64, ptr %23, align 8
  %25 = getelementptr inbounds nuw i8, ptr %0, i64 96
  %26 = load ptr, ptr %25, align 8
  tail call void @jv_free(i64 %24, ptr %26) #9
  %27 = tail call { i64, ptr } @jv_invalid() #9
  %28 = extractvalue { i64, ptr } %27, 0
  %29 = extractvalue { i64, ptr } %27, 1
  store i64 %28, ptr %23, align 8
  store ptr %29, ptr %25, align 8, !tbaa !15
  %30 = getelementptr inbounds nuw i8, ptr %0, i64 40
  %31 = load i32, ptr %30, align 8, !tbaa !32
  %32 = icmp sgt i32 %31, 0
  br i1 %32, label %.lr.ph, label %._crit_edge

.lr.ph:                                           ; preds = %14
  %33 = getelementptr inbounds nuw i8, ptr %0, i64 32
  br label %36

._crit_edge:                                      ; preds = %36, %14
  store i32 0, ptr %30, align 8, !tbaa !32
  %34 = getelementptr inbounds nuw i8, ptr %0, i64 112
  store i32 0, ptr %34, align 8, !tbaa !33
  %35 = getelementptr inbounds nuw i8, ptr %0, i64 200
  store i32 0, ptr %35, align 8, !tbaa !17
  ret void

36:                                               ; preds = %.lr.ph, %36
  %indvars.iv = phi i64 [ 0, %.lr.ph ], [ %indvars.iv.next, %36 ]
  %37 = load ptr, ptr %33, align 8, !tbaa !20
  %38 = getelementptr inbounds nuw %struct.jv, ptr %37, i64 %indvars.iv
  %39 = load i64, ptr %38, align 8
  %40 = getelementptr inbounds nuw i8, ptr %38, i64 8
  %41 = load ptr, ptr %40, align 8
  tail call void @jv_free(i64 %39, ptr %41) #9
  %indvars.iv.next = add nuw nsw i64 %indvars.iv, 1
  %42 = load i32, ptr %30, align 8, !tbaa !32
  %43 = sext i32 %42 to i64
  %44 = icmp slt i64 %indvars.iv.next, %43
  br i1 %44, label %36, label %._crit_edge, !llvm.loop !40
}